target datalayout = "e-m:e-p270:32:32-p271:32:32-p272:64:64-i64:64-i128:128-f80:128-n8:16:32:64-S128"
target triple = "x86_64-pc-linux-gnu"

@saveFileText = internal global ptr null, align 8
@.str.14 = private unnamed_addr constant [40 x i8] c"FILEIO: File name provided is not valid\00", align 1
@.str.36 = private unnamed_addr constant [38 x i8] c"FILEIO: [%s] Failed to open text file\00", align 1
@.str.37 = private unnamed_addr constant [3 x i8] c"wt\00", align 1
@.str.38 = private unnamed_addr constant [3 x i8] c"%s\00", align 1
@.str.39 = private unnamed_addr constant [39 x i8] c"FILEIO: [%s] Failed to write text file\00", align 1
@.str.40 = private unnamed_addr constant [42 x i8] c"FILEIO: [%s] Text file saved successfully\00", align 1

; Function Attrs: nounwind uwtable
define zeroext i1 @SaveFileText(ptr noundef %0, ptr noundef %1) #0 {
  %3 = alloca i1, align 1
  %4 = alloca ptr, align 8
  %5 = alloca ptr, align 8
  %6 = alloca i8, align 1
  %7 = alloca i32, align 4
  %8 = alloca ptr, align 8
  %9 = alloca i32, align 4
  %10 = alloca i32, align 4
  store ptr %0, ptr %4, align 8
  store ptr %1, ptr %5, align 8
  call void @llvm.lifetime.start.p0(i64 1, ptr %6) #13
  store i8 0, ptr %6, align 1
  %11 = load ptr, ptr %4, align 8
  %12 = icmp ne ptr %11, null
  br i1 %12, label %13, label %46

13:                                               ; preds = %2
  %14 = load ptr, ptr @saveFileText, align 8
  %15 = icmp ne ptr %14, null
  br i1 %15, label %16, label %21

16:                                               ; preds = %13
  %17 = load ptr, ptr @saveFileText, align 8
  %18 = load ptr, ptr %4, align 8
  %19 = load ptr, ptr %5, align 8
  %20 = call zeroext i1 %17(ptr noundef %18, ptr noundef %19)
  store i1 %20, ptr %3, align 1
  store i32 1, ptr %7, align 4
  br label %50

21:                                               ; preds = %13
  call void @llvm.lifetime.start.p0(i64 8, ptr %8) #13
  %22 = load ptr, ptr %4, align 8
  %23 = call noalias ptr @fopen(ptr noundef %22, ptr noundef @.str.37)
  store ptr %23, ptr %8, align 8
  %24 = load ptr, ptr %8, align 8
  %25 = icmp ne ptr %24, null
  br i1 %25, label %26, label %43

26:                                               ; preds = %21
  call void @llvm.lifetime.start.p0(i64 4, ptr %9) #13
  %27 = load ptr, ptr %8, align 8
  %28 = load ptr, ptr %5, align 8
  %29 = call i32 (ptr, ptr, ...) @fprintf(ptr noundef %27, ptr noundef @.str.38, ptr noundef %28) #13
  store i32 %29, ptr %9, align 4
  %30 = load i32, ptr %9, align 4
  %31 = icmp slt i32 %30, 0
  br i1 %31, label %32, label %34

32:                                               ; preds = %26
  %33 = load ptr, ptr %4, align 8
  call void (i32, ptr, ...) @TraceLog(i32 noundef 4, ptr noundef @.str.39, ptr noundef %33)
  br label %36

34:                                               ; preds = %26
  %35 = load ptr, ptr %4, align 8
  call void (i32, ptr, ...) @TraceLog(i32 noundef 3, ptr noundef @.str.40, ptr noundef %35)
  br label %36

36:                                               ; preds = %34, %32
  call void @llvm.lifetime.start.p0(i64 4, ptr %10) #13
  %37 = load ptr, ptr %8, align 8
  %38 = call i32 @fclose(ptr noundef %37)
  store i32 %38, ptr %10, align 4
  %39 = load i32, ptr %10, align 4
  %40 = icmp eq i32 %39, 0
  br i1 %40, label %41, label %42

41:                                               ; preds = %36
  store i8 1, ptr %6, align 1
  br label %42

42:                                               ; preds = %41, %36
  call void @llvm.lifetime.end.p0(i64 4, ptr %10) #13
  call void @llvm.lifetime.end.p0(i64 4, ptr %9) #13
  br label %45

43:                                               ; preds = %21
  %44 = load ptr, ptr %4, align 8
  call void (i32, ptr, ...) @TraceLog(i32 noundef 4, ptr noundef @.str.36, ptr noundef %44)
  br label %45

45:                                               ; preds = %43, %42
  call void @llvm.lifetime.end.p0(i64 8, ptr %8) #13
  br label %47

46:                                               ; preds = %2
  call void (i32, ptr, ...) @TraceLog(i32 noundef 4, ptr noundef @.str.14)
  br label %47

47:                                               ; preds = %46, %45
  %48 = load i8, ptr %6, align 1, !range !3, !noundef !4
  %49 = trunc i8 %48 to i1
  store i1 %49, ptr %3, align 1
  store i32 1, ptr %7, align 4
  br label %50

50:                                               ; preds = %47, %16
  call void @llvm.lifetime.end.p0(i64 1, ptr %6) #13
  %51 = load i1, ptr %3, align 1
  ret i1 %51
}