; Function Attrs: nounwind uwtable
define zeroext i1 @SaveFileText(ptr noundef %0, ptr noundef %1) local_unnamed_addr #1 {
  %.not = icmp eq ptr %0, null
  br i1 %.not, label %18, label %3

3:                                                ; preds = %2
  %4 = load ptr, ptr @saveFileText, align 8
  %.not18 = icmp eq ptr %4, null
  br i1 %.not18, label %7, label %5

5:                                                ; preds = %3
  %6 = tail call zeroext i1 %4(ptr noundef nonnull %0, ptr noundef %1) #18
  br label %19

7:                                                ; preds = %3
  %8 = tail call noalias ptr @fopen(ptr noundef nonnull %0, ptr noundef nonnull @.str.37)
  %.not19 = icmp eq ptr %8, null
  br i1 %.not19, label %17, label %9

9:                                                ; preds = %7
  %10 = tail call i32 (ptr, ptr, ...) @fprintf(ptr noundef nonnull %8, ptr noundef nonnull @.str.38, ptr noundef %1) #18
  %11 = icmp slt i32 %10, 0
  br i1 %11, label %12, label %13

12:                                               ; preds = %9
  tail call void (i32, ptr, ...) @TraceLog(i32 noundef 4, ptr noundef nonnull @.str.39, ptr noundef nonnull %0)
  br label %14

13:                                               ; preds = %9
  tail call void (i32, ptr, ...) @TraceLog(i32 noundef 3, ptr noundef nonnull @.str.40, ptr noundef nonnull %0)
  br label %14

14:                                               ; preds = %13, %12
  %15 = tail call i32 @fclose(ptr noundef nonnull %8)
  %16 = icmp eq i32 %15, 0
  br label %19

17:                                               ; preds = %7
  tail call void (i32, ptr, ...) @TraceLog(i32 noundef 4, ptr noundef nonnull @.str.36, ptr noundef nonnull %0)
  br label %19

18:                                               ; preds = %2
  tail call void (i32, ptr, ...) @TraceLog(i32 noundef 4, ptr noundef nonnull @.str.14)
  br label %19

19:                                               ; preds = %18, %17, %14, %5
  %.0 = phi i1 [ %6, %5 ], [ false, %18 ], [ %16, %14 ], [ false, %17 ]
  ret i1 %.0
}